; Function Attrs: mustprogress uwtable
define hidden void @_ZN2cv5utils7logging18LogTagConfigParserC2ENS1_8LogLevelE(ptr noundef nonnull align 8 dereferenceable(168) %0, i32 noundef %1) unnamed_addr #0 align 2 personality ptr @__gxx_personality_v0 {
  tail call void @_ZNSt7__cxx1112basic_stringIcSt11char_traitsIcESaIcEEC1Ev(ptr noundef nonnull align 8 dereferenceable(32) %0) #14
  %3 = getelementptr inbounds i8, ptr %0, i64 32
  tail call void @_ZNSt7__cxx1112basic_stringIcSt11char_traitsIcESaIcEEC1Ev(ptr noundef nonnull align 8 dereferenceable(32) %3) #14
  %4 = getelementptr inbounds i8, ptr %0, i64 64
  tail call void @llvm.memset.p0.i64(ptr noundef nonnull align 8 dereferenceable(7) %4, i8 0, i64 7, i1 false)
  %5 = getelementptr inbounds i8, ptr %0, i64 72
  tail call void @llvm.memset.p0.i64(ptr noundef nonnull align 8 dereferenceable(96) %5, i8 0, i64 96, i1 false)
  %6 = invoke noundef nonnull align 8 dereferenceable(32) ptr @_ZNSt7__cxx1112basic_stringIcSt11char_traitsIcESaIcEEaSEPKc(ptr noundef nonnull align 8 dereferenceable(32) %3, ptr noundef nonnull @.str)
          to label %7 unwind label %11

7:                                                ; preds = %2
  %8 = getelementptr inbounds i8, ptr %0, i64 68
  store i8 1, ptr %8, align 4
  %9 = getelementptr inbounds i8, ptr %0, i64 69
  store i8 0, ptr %9, align 1
  %10 = getelementptr inbounds i8, ptr %0, i64 70
  store i8 0, ptr %10, align 2
  store i32 %1, ptr %4, align 8
  ret void

11:                                               ; preds = %2
  %12 = landingpad { ptr, i32 }
          cleanup
  %13 = getelementptr inbounds i8, ptr %0, i64 144
  %14 = getelementptr inbounds i8, ptr %0, i64 120
  %15 = getelementptr inbounds i8, ptr %0, i64 96
  tail call void @_ZNSt6vectorINSt7__cxx1112basic_stringIcSt11char_traitsIcESaIcEEESaIS5_EED2Ev(ptr noundef nonnull align 8 dereferenceable(24) %13) #14
  tail call void @_ZNSt6vectorIN2cv5utils7logging12LogTagConfigESaIS3_EED2Ev(ptr noundef nonnull align 8 dereferenceable(24) %14) #14
  tail call void @_ZNSt6vectorIN2cv5utils7logging12LogTagConfigESaIS3_EED2Ev(ptr noundef nonnull align 8 dereferenceable(24) %15) #14
  tail call void @_ZNSt6vectorIN2cv5utils7logging12LogTagConfigESaIS3_EED2Ev(ptr noundef nonnull align 8 dereferenceable(24) %5) #14
  tail call void @_ZNSt7__cxx1112basic_stringIcSt11char_traitsIcESaIcEED1Ev(ptr noundef nonnull align 8 dereferenceable(32) %3) #14
  tail call void @_ZNSt7__cxx1112basic_stringIcSt11char_traitsIcESaIcEED1Ev(ptr noundef nonnull align 8 dereferenceable(32) %0) #14
  resume { ptr, i32 } %12
}